; Function Attrs: mustprogress uwtable
define void @_ZN8facebook5velox4exec8toStringERKNSt7__cxx1112basic_stringIcSt11char_traitsIcESaIcEEERKSt6vectorISt10shared_ptrIKNS0_4TypeEESaISE_EE(ptr noalias sret(%"class.std::__cxx11::basic_string") align 8 %agg.result, ptr noundef nonnull align 8 dereferenceable(32) %name, ptr nocapture noundef nonnull readonly align 8 dereferenceable(24) %types) local_unnamed_addr #0 personality ptr @__gxx_personality_v0 {
entry:
  %signature = alloca %"class.std::__cxx11::basic_ostringstream", align 8
  %ref.tmp = alloca %"class.std::__cxx11::basic_string", align 8
  call void @_ZNSt7__cxx1119basic_ostringstreamIcSt11char_traitsIcESaIcEEC1Ev(ptr noundef nonnull align 8 dereferenceable(112) %signature)
  %call = invoke noundef nonnull align 8 dereferenceable(8) ptr @_ZStlsIcSt11char_traitsIcESaIcEERSt13basic_ostreamIT_T0_ES7_RKNSt7__cxx1112basic_stringIS4_S5_T1_EE(ptr noundef nonnull align 8 dereferenceable(8) %signature, ptr noundef nonnull align 8 dereferenceable(32) %name)
          to label %invoke.cont unwind label %lpad.loopexit.split-lp

invoke.cont:                                      ; preds = %entry
  %call2 = invoke noundef nonnull align 8 dereferenceable(8) ptr @_ZStlsISt11char_traitsIcEERSt13basic_ostreamIcT_ES5_PKc(ptr noundef nonnull align 8 dereferenceable(8) %call, ptr noundef nonnull @.str.12)
          to label %for.cond.preheader unwind label %lpad.loopexit.split-lp

for.cond.preheader:                               ; preds = %invoke.cont
  %_M_finish.i = getelementptr inbounds i8, ptr %types, i64 8
  %0 = load ptr, ptr %_M_finish.i, align 8
  %1 = load ptr, ptr %types, align 8
  %cmp12.not = icmp eq ptr %0, %1
  br i1 %cmp12.not, label %for.end, label %for.body

for.body:                                         ; preds = %for.cond.preheader, %invoke.cont12
  %2 = phi ptr [ %7, %invoke.cont12 ], [ %1, %for.cond.preheader ]
  %indvars.iv = phi i64 [ %indvars.iv.next, %invoke.cont12 ], [ 0, %for.cond.preheader ]
  %cmp4.not = icmp eq i64 %indvars.iv, 0
  br i1 %cmp4.not, label %if.end, label %if.then

if.then:                                          ; preds = %for.body
  %call6 = invoke noundef nonnull align 8 dereferenceable(8) ptr @_ZStlsISt11char_traitsIcEERSt13basic_ostreamIcT_ES5_PKc(ptr noundef nonnull align 8 dereferenceable(8) %signature, ptr noundef nonnull @.str.21)
          to label %if.then.if.end_crit_edge unwind label %lpad.loopexit

if.then.if.end_crit_edge:                         ; preds = %if.then
  %.pre = load ptr, ptr %types, align 8
  br label %if.end

lpad.loopexit:                                    ; preds = %if.then, %if.end
  %lpad.loopexit6 = landingpad { ptr, i32 }
          cleanup
  br label %ehcleanup

lpad.loopexit.split-lp:                           ; preds = %entry, %invoke.cont, %for.end, %invoke.cont14
  %lpad.loopexit.split-lp7 = landingpad { ptr, i32 }
          cleanup
  br label %ehcleanup

if.end:                                           ; preds = %if.then.if.end_crit_edge, %for.body
  %3 = phi ptr [ %.pre, %if.then.if.end_crit_edge ], [ %2, %for.body ]
  %add.ptr.i = getelementptr inbounds %"class.std::shared_ptr.38", ptr %3, i64 %indvars.iv
  %4 = load ptr, ptr %add.ptr.i, align 8
  %vtable = load ptr, ptr %4, align 8
  %vfn = getelementptr inbounds i8, ptr %vtable, i64 80
  %5 = load ptr, ptr %vfn, align 8
  invoke void %5(ptr nonnull sret(%"class.std::__cxx11::basic_string") align 8 %ref.tmp, ptr noundef nonnull align 8 dereferenceable(17) %4)
          to label %invoke.cont10 unwind label %lpad.loopexit

invoke.cont10:                                    ; preds = %if.end
  %call13 = invoke noundef nonnull align 8 dereferenceable(8) ptr @_ZStlsIcSt11char_traitsIcESaIcEERSt13basic_ostreamIT_T0_ES7_RKNSt7__cxx1112basic_stringIS4_S5_T1_EE(ptr noundef nonnull align 8 dereferenceable(8) %signature, ptr noundef nonnull align 8 dereferenceable(32) %ref.tmp)
          to label %invoke.cont12 unwind label %lpad11

invoke.cont12:                                    ; preds = %invoke.cont10
  call void @_ZNSt7__cxx1112basic_stringIcSt11char_traitsIcESaIcEED1Ev(ptr noundef nonnull align 8 dereferenceable(32) %ref.tmp) #20
  %indvars.iv.next = add nuw i64 %indvars.iv, 1
  %6 = load ptr, ptr %_M_finish.i, align 8
  %7 = load ptr, ptr %types, align 8
  %sub.ptr.lhs.cast.i = ptrtoint ptr %6 to i64
  %sub.ptr.rhs.cast.i = ptrtoint ptr %7 to i64
  %sub.ptr.sub.i = sub i64 %sub.ptr.lhs.cast.i, %sub.ptr.rhs.cast.i
  %sub.ptr.div.i = ashr exact i64 %sub.ptr.sub.i, 4
  %cmp = icmp ugt i64 %sub.ptr.div.i, %indvars.iv.next
  br i1 %cmp, label %for.body, label %for.end, !llvm.loop !28

lpad11:                                           ; preds = %invoke.cont10
  %8 = landingpad { ptr, i32 }
          cleanup
  call void @_ZNSt7__cxx1112basic_stringIcSt11char_traitsIcESaIcEED1Ev(ptr noundef nonnull align 8 dereferenceable(32) %ref.tmp) #20
  br label %ehcleanup

for.end:                                          ; preds = %invoke.cont12, %for.cond.preheader
  %call15 = invoke noundef nonnull align 8 dereferenceable(8) ptr @_ZStlsISt11char_traitsIcEERSt13basic_ostreamIcT_ES5_PKc(ptr noundef nonnull align 8 dereferenceable(8) %signature, ptr noundef nonnull @.str.14)
          to label %invoke.cont14 unwind label %lpad.loopexit.split-lp

invoke.cont14:                                    ; preds = %for.end
  invoke void @_ZNKSt7__cxx1119basic_ostringstreamIcSt11char_traitsIcESaIcEE3strEv(ptr sret(%"class.std::__cxx11::basic_string") align 8 %agg.result, ptr noundef nonnull align 8 dereferenceable(112) %signature)
          to label %invoke.cont16 unwind label %lpad.loopexit.split-lp

invoke.cont16:                                    ; preds = %invoke.cont14
  call void @_ZNSt7__cxx1119basic_ostringstreamIcSt11char_traitsIcESaIcEED1Ev(ptr noundef nonnull align 8 dereferenceable(112) %signature) #20
  ret void

ehcleanup:                                        ; preds = %lpad.loopexit, %lpad.loopexit.split-lp, %lpad11
  %.pn = phi { ptr, i32 } [ %8, %lpad11 ], [ %lpad.loopexit6, %lpad.loopexit ], [ %lpad.loopexit.split-lp7, %lpad.loopexit.split-lp ]
  call void @_ZNSt7__cxx1119basic_ostringstreamIcSt11char_traitsIcESaIcEED1Ev(ptr noundef nonnull align 8 dereferenceable(112) %signature) #20
  resume { ptr, i32 } %.pn
}